Microchip MPLAB XC8 Compiler V1.43 ()

Linker command line:

-W-3 --edf=C:\Program Files (x86)\Microchip\xc8\v1.43\dat\en_msgs.txt -cs \
  -h+dist/default/production\PID.X.production.sym \
  --cmf=dist/default/production\PID.X.production.cmf -z -Q16F917 \
  -oC:\Users\LARI_3\AppData\Local\Temp\sa8s.2 \
  -Mdist/default/production/PID.X.production.map -E1 -ver=XC8 \
  -ASTACK=0120h-016fh -pstack=STACK -ACODE=00h-07FFhx4 -ASTRCODE=00h-01FFFh \
  -ASTRING=00h-0FFhx32 -ACONST=00h-0FFhx32 -AENTRY=00h-0FFhx32 \
  -ACOMMON=070h-07Fh -ABANK0=020h-06Fh -ABANK1=0A0h-0EFh \
  -ABANK2=0120h-016Fh -ABANK3=0190h-01EFh \
  -ARAM=020h-06Fh,0A0h-0EFh,0120h-016Fh,0190h-01EFh \
  -AABS1=020h-07Fh,0A0h-0EFh,0120h-016Fh,0190h-01EFh -ASFR0=00h-01Fh \
  -ASFR1=080h-09Fh -ASFR2=0100h-011Fh -ASFR3=0180h-018Fh \
  -preset_vec=00h,intentry,init,end_init -ppowerup=CODE -pcinit=CODE \
  -pfunctab=ENTRY -ACONFIG=02007h-02007h -pconfig=CONFIG -DCONFIG=2 \
  -AIDLOC=02000h-02003h -pidloc=IDLOC -DIDLOC=2 -AEEDATA=00h-0FFh/02100h \
  -peeprom_data=EEDATA -DEEDATA=2 -DCODE=2 -DSTRCODE=2 -DSTRING=2 -DCONST=2 \
  -DENTRY=2 -k C:\Users\LARI_3\AppData\Local\Temp\sa8s.obj \
  dist/default/production\PID.X.production.obj 

Object code version is 3.11

Machine type is 16F917



                Name                               Link     Load   Length Selector   Space Scale
C:\Users\LARI_3\AppData\Local\Temp\sa8s.obj
                end_init                              0        0        3        0       0
                config                             2007     2007        1     400E       0
dist/default/production\PID.X.production.obj
                cinit                               7F4      7F4        C      FE8       0
                text5_split_8                        39       39      7BB       72       0
                text5_split_7                       AAC      AAC      132     1558       0
                text5_split_6                       997      997      115     132E       0
                text5_split_5                      113B     113B       8B     2276       0
                text5_split_4                       BDE      BDE      132     17BC       0
                text5_split_3                      16EF     16EF      111     2DDE       0
                text5_split_2                      11C6     11C6       8D     238C       0
                text5_split_1                       D10      D10      136     1A20       0
                text20                             1E99     1E99       19     3D32       0
                text19                              E46      E46      1BA     1C8C       0
                text18                             1F94     1F94       6C     3F28       0
                text17                             1EEC     1EEC       21     3DD8       0
                text16                             15E6     15E6      109     2BCC       0
                text15                             1429     1429       D3     2852       0
                text14                             1253     1253       8E     24A6       0
                text13                             1370     1370       B9     26E0       0
                text12                             1EB2     1EB2       1B     3D64       0
                text11                             12E1     12E1       8F     25C2       0
                text10                             10C7     10C7       74     218E       0
                text9                               806      806        A     100C       0
                text8                              1ECD     1ECD       1F     3D9A       0
                text7                              1002     1002       59     2004       0
                text6                              1F49     1F49       4B     3E92       0
                text5                               885      885      112     110A       0
                text4                               810      810       75     1020       0
                text3                              1F0D     1F0D       3C     3E1A       0
                text2                                 7        7       32        E       0
                text1                              105B     105B       6C     20B6       0
                maintext                           14FC     14FC       EA     29F8       0
                cstackBANK0                          20       20       3E       20       1
                cstackCOMMON                         70       70        E       70       1
                cstackBANK1                          A0       A0       3D       A0       1
                cstackBANK3                         190      190       38      190       1
                bssBANK0                             67       67        6       20       1
                nvBANK0                              5E       5E        9       20       1

TOTAL           Name                               Link     Load   Length     Space
        CLASS   STACK          

        CLASS   CODE           
                end_init                              0        0        3         0
                cinit                               7F4      7F4        C         0
                text5_split_8                        39       39      7BB         0
                text5_split_7                       AAC      AAC      132         0
                text5_split_6                       997      997      115         0
                text5_split_5                      113B     113B       8B         0
                text5_split_4                       BDE      BDE      132         0
                text5_split_3                      16EF     16EF      111         0
                text5_split_2                      11C6     11C6       8D         0
                text5_split_1                       D10      D10      136         0
                text20                             1E99     1E99       19         0
                text19                              E46      E46      1BA         0
                text18                             1F94     1F94       6C         0
                text17                             1EEC     1EEC       21         0
                text16                             15E6     15E6      109         0
                text15                             1429     1429       D3         0
                text14                             1253     1253       8E         0
                text13                             1370     1370       B9         0
                text12                             1EB2     1EB2       1B         0
                text11                             12E1     12E1       8F         0
                text10                             10C7     10C7       74         0
                text9                               806      806        A         0
                text8                              1ECD     1ECD       1F         0
                text7                              1002     1002       59         0
                text6                              1F49     1F49       4B         0
                text5                               885      885      112         0
                text4                               810      810       75         0
                text3                              1F0D     1F0D       3C         0
                text2                                 7        7       32         0
                text1                              105B     105B       6C         0
                maintext                           14FC     14FC       EA         0

        CLASS   STRCODE        

        CLASS   STRING         

        CLASS   CONST          

        CLASS   ENTRY          

        CLASS   COMMON         
                cstackCOMMON                         70       70        E         1

        CLASS   BANK0          
                cstackBANK0                          20       20       3E         1
                bssBANK0                             67       67        6         1
                nvBANK0                              5E       5E        9         1

        CLASS   BANK1          
                cstackBANK1                          A0       A0       3D         1

        CLASS   BANK2          

        CLASS   BANK3          
                cstackBANK3                         190      190       38         1

        CLASS   RAM            

        CLASS   ABS1           
                abs_s1                               7E       7E        2         1

        CLASS   SFR0           

        CLASS   SFR1           

        CLASS   SFR2           

        CLASS   SFR3           

        CLASS   CONFIG         
                config                             2007     2007        1         0

        CLASS   IDLOC          

        CLASS   EEDATA         



SEGMENTS        Name                           Load    Length   Top    Selector   Space  Class     Delta

                reset_vec                      000000  000003  000003         0       0  CODE        2
                text2                          000007  000032  000039         E       0  CODE        2
                cstackBANK0                    000020  00004D  00006D        20       1  BANK0       1
                cstackCOMMON                   000070  00000E  00007E        70       1  COMMON      1
                text5_split_8                  000039  0007BB  0007F4        72       0  CODE        2
                cstackBANK1                    0000A0  00003D  0000DD        A0       1  BANK1       1
                cstackBANK3                    000190  000038  0001C8       190       1  BANK3       1
                cinit                          0007F4  00000C  000800       FE8       0  CODE        2
                text9                          000806  00000A  000810      100C       0  CODE        2
                text4                          000810  000075  000885      1020       0  CODE        2
                text5                          000885  000112  000997      110A       0  CODE        2
                text5_split_6                  000997  000115  000AAC      132E       0  CODE        2
                text5_split_7                  000AAC  000132  000BDE      1558       0  CODE        2
                text5_split_4                  000BDE  000132  000D10      17BC       0  CODE        2
                text5_split_1                  000D10  000136  000E46      1A20       0  CODE        2
                text19                         000E46  0001BA  001000      1C8C       0  CODE        2
                text7                          001002  000059  00105B      2004       0  CODE        2
                text1                          00105B  00006C  0010C7      20B6       0  CODE        2
                text10                         0010C7  000074  00113B      218E       0  CODE        2
                text5_split_5                  00113B  00008B  0011C6      2276       0  CODE        2
                text5_split_2                  0011C6  00008D  001253      238C       0  CODE        2
                text14                         001253  00008E  0012E1      24A6       0  CODE        2
                text11                         0012E1  00008F  001370      25C2       0  CODE        2
                text13                         001370  0000B9  001429      26E0       0  CODE        2
                text15                         001429  0000D3  0014FC      2852       0  CODE        2
                maintext                       0014FC  0000EA  0015E6      29F8       0  CODE        2
                text16                         0015E6  000109  0016EF      2BCC       0  CODE        2
                text5_split_3                  0016EF  000111  001800      2DDE       0  CODE        2
                text20                         001E99  000019  001EB2      3D32       0  CODE        2
                text12                         001EB2  00001B  001ECD      3D64       0  CODE        2
                text8                          001ECD  00001F  001EEC      3D9A       0  CODE        2
                text17                         001EEC  000021  001F0D      3DD8       0  CODE        2
                text3                          001F0D  00003C  001F49      3E1A       0  CODE        2
                text6                          001F49  00004B  001F94      3E92       0  CODE        2
                text18                         001F94  00006C  002000      3F28       0  CODE        2
                config                         002007  000001  002008      400E       0  CONFIG      2


UNUSED ADDRESS RANGES

        Name                Unused          Largest block    Delta
        BANK0            00006D-00006F                3           1
        BANK1            0000DD-0000EF               13           1
        BANK2            000120-00016F               50           1
        BANK3            0001C8-0001EF               28           1
        CODE             000003-000006                4           2
                         000800-000805                6
                         001000-001001                2
                         001800-001E98              699
        CONST            000003-000006                4           2
                         000800-000805                6
                         001000-001001                2
                         001800-001E98              100
        EEDATA           002100-0021FF              100           2
        ENTRY            000003-000006                4           2
                         000800-000805                6
                         001000-001001                2
                         001800-001E98              100
        IDLOC            002000-002003                4           2
        RAM              00006D-00006F                3           1
                         0000DD-0000EF               13
                         000120-00016F               50
                         0001C8-0001EF               28
        SFR0             000000-00001F               20           1
        SFR1             000080-00009F               20           1
        SFR2             000100-00011F               20           1
        SFR3             000180-00018F               10           1
        STACK            000120-00016F               50           1
        STRCODE          000003-000006                4           2
                         000800-000805                6
                         001000-001001                2
                         001800-001E98              699
        STRING           000003-000006                4           2
                         000800-000805                6
                         001000-001001                2
                         001800-001E98              100

                                  Symbol Table

?_PID                     cstackBANK0  00004B
?___aldiv                 cstackCOMMON 000070
?___awdiv                 cstackCOMMON 000070
?___awmod                 cstackCOMMON 000070
?___awtoft                cstackCOMMON 000078
?___ftadd                 cstackBANK0  000030
?___ftmul                 cstackBANK0  000020
?___ftpack                cstackCOMMON 000070
?___fttol                 cstackBANK0  00003D
?___lwdiv                 cstackCOMMON 000070
?___lwmod                 cstackCOMMON 000070
LCD_mapping@D1            cstackCOMMON 000074
LCD_mapping@D2            cstackCOMMON 000070
LCD_mapping@D3            cstackCOMMON 000071
PID@error                 cstackBANK0  000054
PID@read                  cstackBANK0  00004D
PID@setpoint              cstackBANK0  00004B
UART_Init@baudrate        cstackBANK0  000026
UART_Init@x               cstackCOMMON 000079
UART_Write@data           cstackCOMMON 000070
UART_Write_Text@i         cstackCOMMON 000072
UART_Write_Text@text      cstackCOMMON 000074
_ADCON0                   (abs)        00001F
_ADCON1                   (abs)        00009F
_ADRESH                   (abs)        00001E
_ADRESL                   (abs)        00009E
_ANSEL                    (abs)        000091
_BRGH                     (abs)        0004C2
_CCP2CON                  (abs)        00001D
_CCPR2L                   (abs)        00001B
_CREN                     (abs)        0000C4
_D                        bssBANK0     000067
_GO_nDONE                 (abs)        0000F9
_I                        bssBANK0     000069
_INTCON                   (abs)        00000B
_LCDCON                   (abs)        000107
_LCDDATA0                 (abs)        000110
_LCDDATA1                 (abs)        000111
_LCDDATA10                (abs)        00011A
_LCDDATA11                (abs)        00011B
_LCDDATA2                 (abs)        000112
_LCDDATA3                 (abs)        000113
_LCDDATA4                 (abs)        000114
_LCDDATA5                 (abs)        000115
_LCDDATA6                 (abs)        000116
_LCDDATA7                 (abs)        000117
_LCDDATA8                 (abs)        000118
_LCDDATA9                 (abs)        000119
_LCDPS                    (abs)        000108
_LCDSE0                   (abs)        00011C
_LCDSE1                   (abs)        00011D
_LCDSE2                   (abs)        00011E
_LCD_init                 text20       001E99
_LCD_mapping              text19       000E46
_OSCCON                   (abs)        00008F
_P                        bssBANK0     00006B
_PID                      text13       001370
_PID$656                  cstackBANK0  000051
_PID_init                 text12       001EB2
_PORTD                    (abs)        000008
_PR2                      (abs)        000092
_RC5                      (abs)        00003D
_RCIF                     (abs)        000065
_RCREG                    (abs)        00001A
_RD7                      (abs)        000047
_SPBRG                    (abs)        000099
_SPEN                     (abs)        0000C7
_SYNC                     (abs)        0004C4
_T1CON                    (abs)        000010
_T1SYNC                   (abs)        000082
_T2CON                    (abs)        000012
_TMR1CS                   (abs)        000081
_TMR1H                    (abs)        00000F
_TMR1L                    (abs)        00000E
_TMR1ON                   (abs)        000080
_TRISA                    (abs)        000085
_TRISC                    (abs)        000087
_TRISC6                   (abs)        00043E
_TRISC7                   (abs)        00043F
_TRISD                    (abs)        000088
_TRMT                     (abs)        0004C1
_TXEN                     (abs)        0004C5
_TXREG                    (abs)        000019
_UART_Init                text10       0010C7
_UART_Write               text9        000806
_UART_Write_Text          text8        001ECD
__CFG_BOREN$ON            (abs)        000000
__CFG_CP$OFF              (abs)        000000
__CFG_CPD$OFF             (abs)        000000
__CFG_FCMEN$ON            (abs)        000000
__CFG_FOSC$INTOSCIO       (abs)        000000
__CFG_IESO$ON             (abs)        000000
__CFG_MCLRE$ON            (abs)        000000
__CFG_PWRTE$OFF           (abs)        000000
__CFG_WDTE$OFF            (abs)        000000
__Habs1                   abs1         000000
__Hbank0                  bank0        000000
__Hbank1                  bank1        000000
__Hbank2                  bank2        000000
__Hbank3                  bank3        000000
__HbssBANK0               bssBANK0     000000
__Hcinit                  cinit        000800
__Hclrtext                clrtext      000000
__Hcode                   code         000000
__Hcommon                 common       000000
__Hconfig                 config       002008
__HcstackBANK0            cstackBANK0  000000
__HcstackBANK1            cstackBANK1  000000
__HcstackBANK3            cstackBANK3  000000
__HcstackCOMMON           cstackCOMMON 000000
__Heeprom_data            eeprom_data  000000
__Hend_init               end_init     000003
__Hfunctab                functab      000000
__Hidloc                  idloc        000000
__Hinit                   init         000000
__Hintentry               intentry     000000
__Hmaintext               maintext     000000
__HnvBANK0                nvBANK0      000000
__Hpowerup                powerup      000000
__Hram                    ram          000000
__Hreset_vec              reset_vec    000000
__Hsfr0                   sfr0         000000
__Hsfr1                   sfr1         000000
__Hsfr2                   sfr2         000000
__Hsfr3                   sfr3         000000
__Hspace_0                (abs)        002008
__Hspace_1                (abs)        0001C8
__Hspace_2                (abs)        000000
__Hspace_3                (abs)        000000
__Hstack                  stack        000000
__Hstrings                strings      000000
__Htext                   text         000000
__Labs1                   abs1         000000
__Lbank0                  bank0        000000
__Lbank1                  bank1        000000
__Lbank2                  bank2        000000
__Lbank3                  bank3        000000
__LbssBANK0               bssBANK0     000000
__Lcinit                  cinit        0007F4
__Lclrtext                clrtext      000000
__Lcode                   code         000000
__Lcommon                 common       000000
__Lconfig                 config       002007
__LcstackBANK0            cstackBANK0  000000
__LcstackBANK1            cstackBANK1  000000
__LcstackBANK3            cstackBANK3  000000
__LcstackCOMMON           cstackCOMMON 000000
__Leeprom_data            eeprom_data  000000
__Lend_init               end_init     000000
__Lfunctab                functab      000000
__Lidloc                  idloc        000000
__Linit                   init         000000
__Lintentry               intentry     000000
__Lmaintext               maintext     000000
__LnvBANK0                nvBANK0      000000
__Lpowerup                powerup      000000
__Lram                    ram          000000
__Lreset_vec              reset_vec    000000
__Lsfr0                   sfr0         000000
__Lsfr1                   sfr1         000000
__Lsfr2                   sfr2         000000
__Lsfr3                   sfr3         000000
__Lspace_0                (abs)        000000
__Lspace_1                (abs)        000000
__Lspace_2                (abs)        000000
__Lspace_3                (abs)        000000
__Lstack                  stack        000000
__Lstrings                strings      000000
__Ltext                   text         000000
__S0                      (abs)        002008
__S1                      (abs)        0001C8
__S2                      (abs)        000000
__S3                      (abs)        000000
___aldiv                  text11       0012E1
___aldiv@counter          cstackBANK0  000020
___aldiv@dividend         cstackCOMMON 000074
___aldiv@divisor          cstackCOMMON 000070
___aldiv@quotient         cstackBANK0  000022
___aldiv@sign             cstackBANK0  000021
___awdiv                  text7        001002
___awdiv@counter          cstackCOMMON 000075
___awdiv@dividend         cstackCOMMON 000072
___awdiv@divisor          cstackCOMMON 000070
___awdiv@quotient         cstackCOMMON 000077
___awdiv@sign             cstackCOMMON 000076
___awmod                  text6        001F49
___awmod@counter          cstackCOMMON 000075
___awmod@dividend         cstackCOMMON 000072
___awmod@divisor          cstackCOMMON 000070
___awmod@sign             cstackCOMMON 000076
___awtoft                 text17       001EEC
___awtoft@c               cstackCOMMON 000078
___awtoft@sign            cstackCOMMON 00007D
___ftadd                  text16       0015E6
___ftadd@exp1             cstackBANK0  00003C
___ftadd@exp2             cstackBANK0  00003B
___ftadd@f1               cstackBANK0  000030
___ftadd@f2               cstackBANK0  000033
___ftadd@sign             cstackBANK0  00003A
___ftmul                  text15       001429
___ftmul@cntr             cstackBANK0  00002E
___ftmul@exp              cstackBANK0  00002A
___ftmul@f1               cstackBANK0  000020
___ftmul@f2               cstackBANK0  000023
___ftmul@f3_as_product    cstackBANK0  00002B
___ftmul@sign             cstackBANK0  00002F
___ftpack                 text18       001F94
___ftpack@arg             cstackCOMMON 000070
___ftpack@exp             cstackCOMMON 000073
___ftpack@sign            cstackCOMMON 000074
___fttol                  text14       001253
___fttol@exp1             cstackBANK0  00004A
___fttol@f1               cstackBANK0  00003D
___fttol@lval             cstackBANK0  000046
___fttol@sign1            cstackBANK0  000045
___int_sp                 stack        000000
___latbits                (abs)        000002
___lwdiv                  text3        001F0D
___lwdiv@counter          cstackCOMMON 000077
___lwdiv@dividend         cstackCOMMON 000072
___lwdiv@divisor          cstackCOMMON 000070
___lwdiv@quotient         cstackCOMMON 000075
___lwmod                  text2        000007
___lwmod@counter          cstackCOMMON 000075
___lwmod@dividend         cstackCOMMON 000072
___lwmod@divisor          cstackCOMMON 000070
___sp                     stack        000000
__end_of_LCD_init         text20       001EB2
__end_of_LCD_mapping      text19       001000
__end_of_PID              text13       001429
__end_of_PID_init         text12       001ECD
__end_of_UART_Init        text10       00113B
__end_of_UART_Write       text9        000810
__end_of_UART_Write_Text  text8        001EEC
__end_of___aldiv          text11       001370
__end_of___awdiv          text7        00105B
__end_of___awmod          text6        001F94
__end_of___awtoft         text17       001F0D
__end_of___ftadd          text16       0016EF
__end_of___ftmul          text15       0014FC
__end_of___ftpack         text18       002000
__end_of___fttol          text14       0012E1
__end_of___lwdiv          text3        001F49
__end_of___lwmod          text2        000039
__end_of__initialization  cinit        0007FC
__end_of_displayDigit     text5_split_8 0007E2
__end_of_displayNumber    text4        000885
__end_of_main             maintext     0015E6
__end_of_utoa             text1        0010C7
__initialization          cinit        0007F4
__pbssBANK0               bssBANK0     000067
__pcstackBANK0            cstackBANK0  000020
__pcstackBANK1            cstackBANK1  0000A0
__pcstackBANK3            cstackBANK3  000190
__pcstackCOMMON           cstackCOMMON 000070
__pmaintext               maintext     0014FC
__pnvBANK0                nvBANK0      00005E
__ptext1                  text1        00105B
__ptext10                 text10       0010C7
__ptext11                 text11       0012E1
__ptext12                 text12       001EB2
__ptext13                 text13       001370
__ptext14                 text14       001253
__ptext15                 text15       001429
__ptext16                 text16       0015E6
__ptext17                 text17       001EEC
__ptext18                 text18       001F94
__ptext19                 text19       000E46
__ptext2                  text2        000007
__ptext20                 text20       001E99
__ptext3                  text3        001F0D
__ptext4                  text4        000810
__ptext5                  text5        000885
__ptext6                  text6        001F49
__ptext7                  text7        001002
__ptext8                  text8        001ECD
__ptext9                  text9        000806
__size_of_LCD_init        (abs)        000000
__size_of_LCD_mapping     (abs)        000000
__size_of_PID             (abs)        000000
__size_of_PID_init        (abs)        000000
__size_of_UART_Init       (abs)        000000
__size_of_UART_Write      (abs)        000000
__size_of_UART_Write_Text (abs)        000000
__size_of___aldiv         (abs)        000000
__size_of___awdiv         (abs)        000000
__size_of___awmod         (abs)        000000
__size_of___awtoft        (abs)        000000
__size_of___ftadd         (abs)        000000
__size_of___ftmul         (abs)        000000
__size_of___ftpack        (abs)        000000
__size_of___fttol         (abs)        000000
__size_of___lwdiv         (abs)        000000
__size_of___lwmod         (abs)        000000
__size_of_displayDigit    (abs)        000000
__size_of_displayNumber   (abs)        000000
__size_of_main            (abs)        000000
__size_of_utoa            (abs)        000000
_displayDigit             text5        000885
_displayNumber            text4        000810
_kd                       nvBANK0      000061
_ki                       nvBANK0      000064
_kp                       nvBANK0      00005E
_main                     maintext     0014FC
_utoa                     text1        00105B
btemp                     (abs)        00007E
displayDigit@D1           cstackCOMMON 00007B
displayDigit@digito       cstackCOMMON 000079
displayNumber@D1          cstackBANK0  00002B
displayNumber@D2          cstackBANK0  00002C
displayNumber@D3          cstackBANK0  00002D
displayNumber@num         cstackBANK0  000029
end_of_initialization     cinit        0007FC
intlevel0                 functab      000000
intlevel1                 functab      000000
intlevel2                 functab      000000
intlevel3                 functab      000000
intlevel4                 functab      000000
intlevel5                 functab      000000
main@D1                   cstackBANK1  0000C1
main@D2                   cstackBANK3  000190
main@D3                   cstackBANK3  0001AC
main@setpoint             cstackBANK0  00005A
main@str                  cstackBANK1  0000A0
main@timer1               cstackBANK0  00005C
pnum$text5                (abs)        00000E
pnum$text5_split_1        (abs)        00001E
pnum$text5_split_2        (abs)        00001F
pnum$text5_split_3        (abs)        000020
pnum$text5_split_4        (abs)        000021
pnum$text5_split_5        (abs)        000022
pnum$text5_split_6        (abs)        000023
pnum$text5_split_7        (abs)        000024
pnum$text5_split_8        (abs)        000025
psplit$0                  (abs)        0E001E
psplit$1                  (abs)        1E001F
psplit$2                  (abs)        1F0020
psplit$3                  (abs)        200021
psplit$4                  (abs)        210022
psplit$5                  (abs)        220023
psplit$6                  (abs)        230024
psplit$7                  (abs)        240025
reset_vec                 reset_vec    000000
stackhi                   (abs)        000000
stacklo                   (abs)        000000
start                     init         000000
start_initialization      cinit        0007F4
utoa@base                 cstackCOMMON 00007A
utoa@buf                  cstackBANK0  000023
utoa@c                    cstackBANK0  000022
utoa@v                    cstackBANK0  000020
utoa@val                  cstackCOMMON 000078
wtemp0                    (abs)        00007E
